; Function Attrs: nounwind uwtable
define i32 @cli_bcapi_file_byteat(ptr nocapture noundef readonly %0, i32 noundef %1) local_unnamed_addr #1 {
  %3 = getelementptr inbounds i8, ptr %0, i64 72
  %4 = load ptr, ptr %3, align 8
  %.not = icmp eq ptr %4, null
  br i1 %.not, label %5, label %6

5:                                                ; preds = %2
  tail call void (ptr, ...) @cli_dbgmsg(ptr noundef nonnull @.str.31) #29
  br label %19

6:                                                ; preds = %2
  %7 = getelementptr inbounds i8, ptr %0, i64 1312
  %8 = load ptr, ptr %7, align 8
  %9 = zext i32 %1 to i64
  tail call void @cli_event_int(ptr noundef %8, i32 noundef 3, i64 noundef %9) #29
  %10 = load ptr, ptr %3, align 8
  %11 = getelementptr inbounds i8, ptr %10, i64 88
  %12 = load i64, ptr %11, align 8
  %or.cond.not = icmp ugt i64 %12, %9
  br i1 %or.cond.not, label %13, label %fmap_readn.exit.thread

13:                                               ; preds = %6
  %14 = getelementptr inbounds i8, ptr %10, i64 104
  %15 = load ptr, ptr %14, align 8
  %16 = tail call ptr %15(ptr noundef nonnull %10, i64 noundef %9, i64 noundef 1, i32 noundef 0) #29
  %.not.i = icmp eq ptr %16, null
  br i1 %.not.i, label %fmap_readn.exit.thread, label %fmap_readn.exit

fmap_readn.exit:                                  ; preds = %13
  %17 = load i8, ptr %16, align 1
  %18 = zext i8 %17 to i32
  br label %19

fmap_readn.exit.thread:                           ; preds = %13, %6
  tail call void (ptr, ...) @cli_dbgmsg(ptr noundef nonnull @.str.32, i32 noundef %1) #29
  br label %19

19:                                               ; preds = %fmap_readn.exit, %fmap_readn.exit.thread, %5
  %.0 = phi i32 [ -1, %fmap_readn.exit.thread ], [ %18, %fmap_readn.exit ], [ -1, %5 ]
  ret i32 %.0
}